; Function Attrs: nounwind uwtable
define ptr @l_Lean_Compiler_LCNF_withNormFVarResult___rarg(ptr noundef %0, ptr readnone captures(none) %1, ptr noundef %2, ptr noundef %3) local_unnamed_addr #2 {
  %5 = ptrtoint ptr %2 to i64
  %6 = and i64 %5, 1
  %.not.i19 = icmp eq i64 %6, 0
  br i1 %.not.i19, label %10, label %7

7:                                                ; preds = %4
  %8 = lshr i64 %5, 1
  %9 = trunc i64 %8 to i32
  br label %lean_obj_tag.exit

10:                                               ; preds = %4
  %11 = getelementptr i8, ptr %2, i64 4
  %.val.i = load i32, ptr %11, align 4
  %12 = lshr i32 %.val.i, 24
  br label %lean_obj_tag.exit

lean_obj_tag.exit:                                ; preds = %7, %10
  %.0.i = phi i32 [ %9, %7 ], [ %12, %10 ]
  %13 = icmp eq i32 %.0.i, 0
  br i1 %13, label %14, label %42

14:                                               ; preds = %lean_obj_tag.exit
  %15 = ptrtoint ptr %0 to i64
  %16 = and i64 %15, 1
  %.not22 = icmp eq i64 %16, 0
  br i1 %.not22, label %17, label %lean_dec.exit14

17:                                               ; preds = %14
  %18 = load i32, ptr %0, align 4, !tbaa !8
  %19 = icmp sgt i32 %18, 1
  br i1 %19, label %20, label %22, !prof !11

20:                                               ; preds = %17
  %21 = add nsw i32 %18, -1
  store i32 %21, ptr %0, align 4, !tbaa !8
  br label %lean_dec.exit14

22:                                               ; preds = %17
  %.not.i = icmp eq i32 %18, 0
  br i1 %.not.i, label %lean_dec.exit14, label %23

23:                                               ; preds = %22
  tail call void @lean_dec_ref_cold(ptr noundef nonnull %0) #6
  br label %lean_dec.exit14

lean_dec.exit14:                                  ; preds = %23, %22, %20, %14
  %24 = getelementptr inbounds nuw i8, ptr %2, i64 8
  %25 = load ptr, ptr %24, align 8, !tbaa !4
  %26 = ptrtoint ptr %25 to i64
  %27 = and i64 %26, 1
  %.not23 = icmp eq i64 %27, 0
  br i1 %.not23, label %28, label %lean_inc.exit

28:                                               ; preds = %lean_dec.exit14
  %.val.i20 = load i32, ptr %25, align 4, !tbaa !8
  %29 = icmp sgt i32 %.val.i20, 0
  br i1 %29, label %30, label %32, !prof !11

30:                                               ; preds = %28
  %31 = add nuw i32 %.val.i20, 1
  store i32 %31, ptr %25, align 4, !tbaa !8
  br label %lean_inc.exit

32:                                               ; preds = %28
  %.not.i21 = icmp eq i32 %.val.i20, 0
  br i1 %.not.i21, label %lean_inc.exit, label %33

33:                                               ; preds = %32
  tail call void @lean_inc_ref_cold(ptr noundef nonnull %25) #6
  br label %lean_inc.exit

lean_inc.exit:                                    ; preds = %33, %32, %30, %lean_dec.exit14
  br i1 %.not.i19, label %34, label %lean_dec.exit13

34:                                               ; preds = %lean_inc.exit
  %35 = load i32, ptr %2, align 4, !tbaa !8
  %36 = icmp sgt i32 %35, 1
  br i1 %36, label %37, label %39, !prof !11

37:                                               ; preds = %34
  %38 = add nsw i32 %35, -1
  store i32 %38, ptr %2, align 4, !tbaa !8
  br label %lean_dec.exit13

39:                                               ; preds = %34
  %.not.i15 = icmp eq i32 %35, 0
  br i1 %.not.i15, label %lean_dec.exit13, label %40

40:                                               ; preds = %39
  tail call void @lean_dec_ref_cold(ptr noundef nonnull %2) #6
  br label %lean_dec.exit13

lean_dec.exit13:                                  ; preds = %40, %39, %37, %lean_inc.exit
  %41 = tail call ptr @lean_apply_1(ptr noundef %3, ptr noundef %25) #6
  br label %54

42:                                               ; preds = %lean_obj_tag.exit
  %43 = ptrtoint ptr %3 to i64
  %44 = and i64 %43, 1
  %.not = icmp eq i64 %44, 0
  br i1 %.not, label %45, label %lean_dec.exit

45:                                               ; preds = %42
  %46 = load i32, ptr %3, align 4, !tbaa !8
  %47 = icmp sgt i32 %46, 1
  br i1 %47, label %48, label %50, !prof !11

48:                                               ; preds = %45
  %49 = add nsw i32 %46, -1
  store i32 %49, ptr %3, align 4, !tbaa !8
  br label %lean_dec.exit

50:                                               ; preds = %45
  %.not.i17 = icmp eq i32 %46, 0
  br i1 %.not.i17, label %lean_dec.exit, label %51

51:                                               ; preds = %50
  tail call void @lean_dec_ref_cold(ptr noundef nonnull %3) #6
  br label %lean_dec.exit

lean_dec.exit:                                    ; preds = %51, %50, %48, %42
  %52 = load ptr, ptr @l_Lean_Compiler_LCNF_withNormFVarResult___rarg___closed__1, align 8, !tbaa !4
  %53 = tail call ptr @lean_apply_2(ptr noundef %0, ptr noundef nonnull inttoptr (i64 1 to ptr), ptr noundef %52) #6
  br label %54

54:                                               ; preds = %lean_dec.exit, %lean_dec.exit13
  %.0 = phi ptr [ %41, %lean_dec.exit13 ], [ %53, %lean_dec.exit ]
  ret ptr %.0
}